(dp0
S'nb_duplicated_lines'
p1
I0
sS'undocumented_function'
p2
I0
sS'module'
p3
I1
sS'badname_function'
p4
I0
sS'dependencies'
p5
(dp6
S'openai_ros.openai_ros_common'
p7
c__builtin__
set
p8
((lp9
S'openai_ros.task_envs.sawyer.learn_to_touch_cube'
p10
atp11
Rp12
sS'geometry_msgs.msg'
p13
g8
((lp14
g10
atp15
Rp16
sS'openai_ros.task_envs.task_commons'
p17
g8
((lp18
g10
atp19
Rp20
sS'openai_ros.robot_envs.sawyer_env'
p21
g8
((lp22
g10
atp23
Rp24
sS'gym.spaces'
p25
g8
((lp26
g10
atp27
Rp28
sS'gym.envs.registration'
p29
g8
((lp30
g10
atp31
Rp32
sS'rospy'
p33
g8
((lp34
g10
atp35
Rp36
sS'tf.transformations'
p37
g8
((lp38
g10
atp39
Rp40
sS'numpy'
p41
g8
((lp42
g10
atp43
Rp44
ssS'badname_const'
p45
I0
sS'badname_inlinevar'
p46
I0
sS'global_note'
p47
F6.587677725118484
sS'badname_class'
p48
I0
sS'undocumented_class'
p49
I1
sS'refactor'
p50
I5
sS'badname_argument'
p51
I0
sS'statement'
p52
I211
sS'percent_duplicated_lines'
p53
F0.0
sS'fatal'
p54
I0
sS'method'
p55
I14
sS'function'
p56
I0
sS'badname_variable'
p57
I3
sS'undocumented_method'
p58
I1
sS'by_msg'
p59
(dp60
S'attribute-defined-outside-init'
p61
I7
sS'no-self-use'
p62
I3
sS'fixme'
p63
I1
sS'missing-docstring'
p64
I3
sS'too-many-instance-attributes'
p65
I1
sS'no-member'
p66
I1
sS'bad-continuation'
p67
I3
sS'too-many-branches'
p68
I1
sS'superfluous-parens'
p69
I2
sS'invalid-name'
p70
I3
sS'unused-variable'
p71
I1
sS'ungrouped-imports'
p72
I2
sS'wrong-import-order'
p73
I4
sS'abstract-method'
p74
I3
sS'logging-not-lazy'
p75
I16
sS'pointless-string-statement'
p76
I1
sS'line-too-long'
p77
I14
sS'unused-import'
p78
I2
ssS'convention'
p79
I31
sS'badname_module'
p80
I0
sS'undocumented_module'
p81
I1
sS'class'
p82
I1
sS'badname_method'
p83
I0
sS'by_module'
p84
(dp85
g10
(dp86
S'info'
p87
I0
sg79
I31
sg50
I5
sS'warning'
p88
I31
sg52
I0
sS'error'
p89
I1
sg54
I0
sssg87
I0
sS'badname_class_attribute'
p90
I0
sg88
I31
sg89
I1
sS'badname_attr'
p91
I0
sS'cycles'
p92
(lp93
s.