(dp0
S'nb_duplicated_lines'
p1
I0
sS'undocumented_function'
p2
I0
sS'module'
p3
I1
sS'badname_function'
p4
I0
sS'dependencies'
p5
(dp6
S'openai_ros.openai_ros_common'
p7
c__builtin__
set
p8
((lp9
S'openai_ros.robot_envs.sawyer_env'
p10
atp11
Rp12
sS'sensor_msgs.msg'
p13
g8
((lp14
g10
atp15
Rp16
sS'rospy'
p17
g8
((lp18
g10
atp19
Rp20
sS'tf'
p21
g8
((lp22
g10
atp23
Rp24
sS'numpy'
p25
g8
((lp26
g10
atp27
Rp28
sS'openai_ros.robot_gazebo_env'
p29
g8
((lp30
g10
atp31
Rp32
ssS'badname_const'
p33
I0
sS'badname_inlinevar'
p34
I0
sS'global_note'
p35
F4.787878787878787
sS'badname_class'
p36
I0
sS'undocumented_class'
p37
I0
sS'refactor'
p38
I1
sS'badname_argument'
p39
I0
sS'statement'
p40
I165
sS'percent_duplicated_lines'
p41
F0.0
sS'fatal'
p42
I0
sS'method'
p43
I29
sS'function'
p44
I0
sS'badname_variable'
p45
I2
sS'undocumented_method'
p46
I6
sS'by_msg'
p47
(dp48
S'bare-except'
p49
I4
sS'fixme'
p50
I2
sS'missing-docstring'
p51
I7
sS'unused-argument'
p52
I2
sS'too-many-instance-attributes'
p53
I1
sS'unused-import'
p54
I3
sS'superfluous-parens'
p55
I1
sS'import-error'
p56
I4
sS'invalid-name'
p57
I2
sS'unused-variable'
p58
I1
sS'ungrouped-imports'
p59
I2
sS'wrong-import-order'
p60
I2
sS'logging-not-lazy'
p61
I4
sS'attribute-defined-outside-init'
p62
I14
sS'line-too-long'
p63
I21
ssS'convention'
p64
I35
sS'badname_module'
p65
I0
sS'undocumented_module'
p66
I1
sS'class'
p67
I1
sS'badname_method'
p68
I0
sS'by_module'
p69
(dp70
g10
(dp71
S'info'
p72
I0
sg64
I35
sg38
I1
sS'warning'
p73
I30
sg40
I0
sS'error'
p74
I4
sg42
I0
sssg72
I0
sS'badname_class_attribute'
p75
I0
sg73
I30
sg74
I4
sS'badname_attr'
p76
I0
sS'cycles'
p77
(lp78
s.