(dp0
S'nb_duplicated_lines'
p1
I0
sS'undocumented_function'
p2
I0
sS'module'
p3
I1
sS'badname_function'
p4
I0
sS'dependencies'
p5
(dp6
S'openai_ros.openai_ros_common'
p7
c__builtin__
set
p8
((lp9
S'openai_ros.robot_envs.fetchsimple_env'
p10
atp11
Rp12
sS'trajectory_msgs.msg'
p13
g8
((lp14
g10
atp15
Rp16
sS'moveit_commander'
p17
g8
((lp18
g10
atp19
Rp20
sS'geometry_msgs.msg'
p21
g8
((lp22
g10
atp23
Rp24
sS'openai_ros.robot_gazebo_env'
p25
g8
((lp26
g10
atp27
Rp28
sS'nav_msgs.msg'
p29
g8
((lp30
g10
atp31
Rp32
sS'sensor_msgs.msg'
p33
g8
((lp34
g10
atp35
Rp36
sS'rospy'
p37
g8
((lp38
g10
atp39
Rp40
sS'moveit_msgs.msg'
p41
g8
((lp42
g10
atp43
Rp44
sS'numpy'
p45
g8
((lp46
g10
atp47
Rp48
sS'std_msgs.msg'
p49
g8
((lp50
g10
atp51
Rp52
ssS'badname_const'
p53
I0
sS'badname_inlinevar'
p54
I0
sS'global_note'
p55
F6.508620689655173
sS'badname_class'
p56
I0
sS'undocumented_class'
p57
I3
sS'refactor'
p58
I2
sS'badname_argument'
p59
I0
sS'statement'
p60
I232
sS'percent_duplicated_lines'
p61
F0.0
sS'fatal'
p62
I0
sS'method'
p63
I34
sS'function'
p64
I0
sS'badname_variable'
p65
I0
sS'undocumented_method'
p66
I16
sS'by_msg'
p67
(dp68
S'bare-except'
p69
I2
sS'fixme'
p70
I1
sS'missing-docstring'
p71
I20
sS'unused-argument'
p72
I1
sS'no-self-use'
p73
I1
sS'too-many-instance-attributes'
p74
I1
sS'no-member'
p75
I5
sS'bad-continuation'
p76
I2
sS'superfluous-parens'
p77
I2
sS'invalid-name'
p78
I1
sS'unused-variable'
p79
I1
sS'ungrouped-imports'
p80
I1
sS'wrong-import-order'
p81
I5
sS'logging-not-lazy'
p82
I12
sS'attribute-defined-outside-init'
p83
I2
sS'line-too-long'
p84
I1
sS'unused-import'
p85
I3
ssS'convention'
p86
I32
sS'badname_module'
p87
I0
sS'undocumented_module'
p88
I1
sS'class'
p89
I3
sS'badname_method'
p90
I0
sS'by_module'
p91
(dp92
g10
(dp93
S'info'
p94
I0
sg86
I32
sg58
I2
sS'warning'
p95
I22
sg60
I0
sS'error'
p96
I5
sg62
I0
sssg94
I0
sS'badname_class_attribute'
p97
I0
sg95
I22
sg96
I5
sS'badname_attr'
p98
I1
sS'cycles'
p99
(lp100
s.